{
   <insert_a_suppression_name_here>
   Memcheck:Leak
   match-leak-kinds: reachable
   fun:_Znwm
   fun:_ZN14CommandHandlerC1Ev
   fun:_ZN6ServerC1EiRKNSt7__cxx1112basic_stringIcSt11char_traitsIcESaIcEEE
   fun:main
}

{
   <insert_a_suppression_name_here>
   Memcheck:Leak
   match-leak-kinds: reachable
   fun:_Znwm
   fun:_ZN14CommandHandlerC1Ev
   fun:_ZN6ServerC1EiRKNSt7__cxx1112basic_stringIcSt11char_traitsIcESaIcEEE
   fun:main
}

{
   <insert_a_suppression_name_here>
   Memcheck:Leak
   match-leak-kinds: reachable
   fun:_Znwm
   fun:_ZN14CommandHandlerC1Ev
   fun:_ZN6ServerC1EiRKNSt7__cxx1112basic_stringIcSt11char_traitsIcESaIcEEE
   fun:main
}

{
   <insert_a_suppression_name_here>
   Memcheck:Leak
   match-leak-kinds: reachable
   fun:_Znwm
   fun:_ZN14CommandHandlerC1Ev
   fun:_ZN6ServerC1EiRKNSt7__cxx1112basic_stringIcSt11char_traitsIcESaIcEEE
   fun:main
}

{
   <insert_a_suppression_name_here>
   Memcheck:Leak
   match-leak-kinds: reachable
   fun:_Znwm
   fun:_ZN14CommandHandlerC1Ev
   fun:_ZN6ServerC1EiRKNSt7__cxx1112basic_stringIcSt11char_traitsIcESaIcEEE
   fun:main
}

{
   <insert_a_suppression_name_here>
   Memcheck:Leak
   match-leak-kinds: reachable
   fun:_Znwm
   fun:_ZN14CommandHandlerC1Ev
   fun:_ZN6ServerC1EiRKNSt7__cxx1112basic_stringIcSt11char_traitsIcESaIcEEE
   fun:main
}

{
   <insert_a_suppression_name_here>
   Memcheck:Leak
   match-leak-kinds: reachable
   fun:_Znwm
   fun:_ZN14CommandHandlerC1Ev
   fun:_ZN6ServerC1EiRKNSt7__cxx1112basic_stringIcSt11char_traitsIcESaIcEEE
   fun:main
}

{
   <insert_a_suppression_name_here>
   Memcheck:Leak
   match-leak-kinds: reachable
   fun:_Znwm
   fun:_ZN14CommandHandlerC1Ev
   fun:_ZN6ServerC1EiRKNSt7__cxx1112basic_stringIcSt11char_traitsIcESaIcEEE
   fun:main
}

{
   <insert_a_suppression_name_here>
   Memcheck:Leak
   match-leak-kinds: reachable
   fun:_Znwm
   fun:_ZN14CommandHandlerC1Ev
   fun:_ZN6ServerC1EiRKNSt7__cxx1112basic_stringIcSt11char_traitsIcESaIcEEE
   fun:main
}

{
   <insert_a_suppression_name_here>
   Memcheck:Leak
   match-leak-kinds: reachable
   fun:_Znwm
   fun:_ZN14CommandHandlerC1Ev
   fun:_ZN6ServerC1EiRKNSt7__cxx1112basic_stringIcSt11char_traitsIcESaIcEEE
   fun:main
}

{
   <insert_a_suppression_name_here>
   Memcheck:Leak
   match-leak-kinds: reachable
   fun:_Znwm
   fun:_ZN14CommandHandlerC1Ev
   fun:_ZN6ServerC1EiRKNSt7__cxx1112basic_stringIcSt11char_traitsIcESaIcEEE
   fun:main
}

{
   <insert_a_suppression_name_here>
   Memcheck:Leak
   match-leak-kinds: reachable
   fun:_Znwm
   fun:_ZN14CommandHandlerC1Ev
   fun:_ZN6ServerC1EiRKNSt7__cxx1112basic_stringIcSt11char_traitsIcESaIcEEE
   fun:main
}

{
   <insert_a_suppression_name_here>
   Memcheck:Leak
   match-leak-kinds: reachable
   fun:_Znwm
   fun:_ZN14CommandHandlerC1Ev
   fun:_ZN6ServerC1EiRKNSt7__cxx1112basic_stringIcSt11char_traitsIcESaIcEEE
   fun:main
}

{
   <insert_a_suppression_name_here>
   Memcheck:Leak
   match-leak-kinds: reachable
   fun:_Znwm
   fun:_ZNSt15__new_allocatorI6pollfdE8allocateEmPKv
   fun:_ZN9__gnu_cxx14__alloc_traitsISaI6pollfdES1_E8allocateERS2_m
   fun:_ZNSt12_Vector_baseI6pollfdSaIS0_EE11_M_allocateEm
   fun:_ZNSt6vectorI6pollfdSaIS0_EE17_M_realloc_insertEN9__gnu_cxx17__normal_iteratorIPS0_S2_EERKS0_
   fun:_ZNSt6vectorI6pollfdSaIS0_EE9push_backERKS0_
   fun:_ZN6Server3runEv
   fun:main
}

{
   <insert_a_suppression_name_here>
   Memcheck:Leak
   match-leak-kinds: reachable
   fun:_Znwm
   fun:_ZNSt15__new_allocatorISt13_Rb_tree_nodeISt4pairIKNSt7__cxx1112basic_stringIcSt11char_traitsIcESaIcEEEP8ICommandEEE8allocateEmPKv
   fun:_ZN9__gnu_cxx14__alloc_traitsISaISt13_Rb_tree_nodeISt4pairIKNSt7__cxx1112basic_stringIcSt11char_traitsIcESaIcEEEP8ICommandEEESD_E8allocateERSE_m
   fun:_ZNSt8_Rb_treeINSt7__cxx1112basic_stringIcSt11char_traitsIcESaIcEEESt4pairIKS5_P8ICommandESt10_Select1stISA_ESt4lessIS5_ESaISA_EE11_M_get_nodeEv
   fun:_ZNSt8_Rb_treeINSt7__cxx1112basic_stringIcSt11char_traitsIcESaIcEEESt4pairIKS5_P8ICommandESt10_Select1stISA_ESt4lessIS5_ESaISA_EE14_M_create_nodeERKSA_
   fun:_ZNKSt8_Rb_treeINSt7__cxx1112basic_stringIcSt11char_traitsIcESaIcEEESt4pairIKS5_P8ICommandESt10_Select1stISA_ESt4lessIS5_ESaISA_EE11_Alloc_nodeclISA_EEPSt13_Rb_tree_nodeISA_ERKT_
   fun:_ZNSt8_Rb_treeINSt7__cxx1112basic_stringIcSt11char_traitsIcESaIcEEESt4pairIKS5_P8ICommandESt10_Select1stISA_ESt4lessIS5_ESaISA_EE10_M_insert_INSG_11_Alloc_nodeEEESt17_Rb_tree_iteratorISA_EPSt18_Rb_tree_node_baseSM_RKSA_RT_
   fun:_ZNSt8_Rb_treeINSt7__cxx1112basic_stringIcSt11char_traitsIcESaIcEEESt4pairIKS5_P8ICommandESt10_Select1stISA_ESt4lessIS5_ESaISA_EE17_M_insert_unique_INSG_11_Alloc_nodeEEESt17_Rb_tree_iteratorISA_ESt23_Rb_tree_const_iteratorISA_ERKSA_RT_
   fun:_ZNSt8_Rb_treeINSt7__cxx1112basic_stringIcSt11char_traitsIcESaIcEEESt4pairIKS5_P8ICommandESt10_Select1stISA_ESt4lessIS5_ESaISA_EE17_M_insert_unique_ESt23_Rb_tree_const_iteratorISA_ERKSA_
   fun:_ZNSt3mapINSt7__cxx1112basic_stringIcSt11char_traitsIcESaIcEEEP8ICommandSt4lessIS5_ESaISt4pairIKS5_S7_EEE6insertESt17_Rb_tree_iteratorISC_ERKSC_
   fun:_ZNSt3mapINSt7__cxx1112basic_stringIcSt11char_traitsIcESaIcEEEP8ICommandSt4lessIS5_ESaISt4pairIKS5_S7_EEEixERSB_
   fun:_ZN14CommandHandler15registerCommandERKNSt7__cxx1112basic_stringIcSt11char_traitsIcESaIcEEEP8ICommand
}

{
   <insert_a_suppression_name_here>
   Memcheck:Leak
   match-leak-kinds: reachable
   fun:malloc
   fun:_IO_file_doallocate
   fun:_IO_doallocbuf
   fun:_IO_file_overflow@@GLIBC_2.2.5
   fun:_IO_new_file_xsputn
   fun:_IO_file_xsputn@@GLIBC_2.2.5
   fun:fwrite
   fun:_ZSt16__ostream_insertIcSt11char_traitsIcEERSt13basic_ostreamIT_T0_ES6_PKS3_l
   fun:_ZStlsISt11char_traitsIcEERSt13basic_ostreamIcT_ES5_PKc
   fun:main
}

{
   <insert_a_suppression_name_here>
   Memcheck:Leak
   match-leak-kinds: reachable
   fun:malloc
   obj:/usr/lib/x86_64-linux-gnu/libstdc++.so.6.0.30
   fun:call_init.part.0
   fun:call_init
   fun:_dl_init
   obj:/usr/lib/x86_64-linux-gnu/ld-linux-x86-64.so.2
   obj:*
   obj:*
   obj:*
   obj:*
}



